target datalayout = "e-m:e-p270:32:32-p271:32:32-p272:64:64-i64:64-i128:128-f80:128-n8:16:32:64-S128"
target triple = "x86_64-pc-linux-gnu"

@env_str = internal global ptr null, align 8
@.str.1 = private unnamed_addr constant [27 x i8] c"mca_base_env_list_internal\00", align 1

; Function Attrs: nounwind uwtable
define i32 @pmix_util_keyval_save_internal_envars(ptr noundef %0) #0 {
  %2 = alloca ptr, align 8
  store ptr %0, ptr %2, align 8, !tbaa !19
  %3 = load ptr, ptr @env_str, align 8, !tbaa !3
  %4 = icmp ne ptr null, %3
  br i1 %4, label %5, label %13

5:                                                ; preds = %1
  %6 = load ptr, ptr @env_str, align 8, !tbaa !3
  %7 = call i64 @strlen(ptr noundef %6) #11
  %8 = icmp ult i64 0, %7
  br i1 %8, label %9, label %13

9:                                                ; preds = %5
  %10 = load ptr, ptr %2, align 8, !tbaa !19
  %11 = load ptr, ptr @env_str, align 8, !tbaa !3
  call void %10(ptr noundef null, i32 noundef 0, ptr noundef @.str.1, ptr noundef %11)
  %12 = load ptr, ptr @env_str, align 8, !tbaa !3
  call void @free(ptr noundef %12) #10
  store ptr null, ptr @env_str, align 8, !tbaa !3
  br label %13

13:                                               ; preds = %9, %5, %1
  ret i32 0
}