; Function Attrs: nounwind uwtable
define noundef i32 @pmix_util_keyval_save_internal_envars(ptr noundef readonly captures(none) %0) local_unnamed_addr #0 {
  %2 = load ptr, ptr @env_str, align 8, !tbaa !3
  %.not = icmp eq ptr %2, null
  br i1 %.not, label %6, label %3

3:                                                ; preds = %1
  %char0 = load i8, ptr %2, align 1
  %.not1 = icmp eq i8 %char0, 0
  br i1 %.not1, label %6, label %4

4:                                                ; preds = %3
  tail call void %0(ptr noundef null, i32 noundef 0, ptr noundef nonnull @.str.1, ptr noundef nonnull %2) #14
  %5 = load ptr, ptr @env_str, align 8, !tbaa !3
  tail call void @free(ptr noundef %5) #14
  store ptr null, ptr @env_str, align 8, !tbaa !3
  br label %6

6:                                                ; preds = %4, %3, %1
  ret i32 0
}